target datalayout = "e-m:e-p270:32:32-p271:32:32-p272:64:64-i64:64-i128:128-f80:128-n8:16:32:64-S128"
target triple = "x86_64-pc-linux-gnu"

%struct.rb_iseq_struct = type { i64, i64, ptr, %union.anon.15 }
%union.anon.15 = type { %struct.anon.16 }
%struct.anon.16 = type { i64, i32 }
%struct.rb_iseq_constant_body = type { i32, i32, ptr, %struct.anon.18, %struct.rb_iseq_location_struct, %struct.iseq_insn_info, ptr, ptr, ptr, ptr, ptr, ptr, %struct.anon.19, i32, i32, i32, i32, i32, i32, i32, i32, i8, %union.anon.20, ptr, ptr, ptr, i64, ptr, i64, ptr, i64 }
%struct.anon.18 = type { %struct.anon, i32, i32, i32, i32, i32, i32, i32, ptr, ptr }
%struct.anon = type { i16, [2 x i8] }
%struct.rb_iseq_location_struct = type { i64, i64, i64, i32, i32, %struct.rb_code_location_struct }
%struct.rb_code_location_struct = type { %struct.rb_code_position_struct, %struct.rb_code_position_struct }
%struct.rb_code_position_struct = type { i32, i32 }
%struct.iseq_insn_info = type { ptr, ptr, i32, ptr }
%struct.anon.19 = type { i64, i64, i64, i64, ptr }
%union.anon.20 = type { ptr }

; Function Attrs: nounwind sspstrong uwtable
define hidden i32 @rb_local_defined(i64 noundef %0, ptr noundef %1) #0 {
  %3 = alloca i32, align 4
  %4 = alloca i64, align 8
  %5 = alloca ptr, align 8
  %6 = alloca i32, align 4
  %7 = alloca ptr, align 8
  %8 = alloca i32, align 4
  store i64 %0, ptr %4, align 8, !tbaa !7
  store ptr %1, ptr %5, align 8, !tbaa !11
  %9 = load ptr, ptr %5, align 8, !tbaa !11
  %10 = icmp ne ptr %9, null
  br i1 %10, label %11, label %44

11:                                               ; preds = %2
  call void @llvm.lifetime.start.p0(i64 4, ptr %6) #31
  call void @llvm.lifetime.start.p0(i64 8, ptr %7) #31
  %12 = load ptr, ptr %5, align 8, !tbaa !11
  %13 = getelementptr inbounds nuw %struct.rb_iseq_struct, ptr %12, i32 0, i32 2
  %14 = load ptr, ptr %13, align 8, !tbaa !52
  %15 = getelementptr inbounds nuw %struct.rb_iseq_constant_body, ptr %14, i32 0, i32 9
  %16 = load ptr, ptr %15, align 8, !tbaa !218
  %17 = getelementptr inbounds nuw %struct.rb_iseq_struct, ptr %16, i32 0, i32 2
  %18 = load ptr, ptr %17, align 8, !tbaa !52
  store ptr %18, ptr %7, align 8, !tbaa !105
  store i32 0, ptr %6, align 4, !tbaa !41
  br label %19

19:                                               ; preds = %37, %11
  %20 = load i32, ptr %6, align 4, !tbaa !41
  %21 = load ptr, ptr %7, align 8, !tbaa !105
  %22 = getelementptr inbounds nuw %struct.rb_iseq_constant_body, ptr %21, i32 0, i32 13
  %23 = load i32, ptr %22, align 8, !tbaa !103
  %24 = icmp ult i32 %20, %23
  br i1 %24, label %25, label %40

25:                                               ; preds = %19
  %26 = load ptr, ptr %7, align 8, !tbaa !105
  %27 = getelementptr inbounds nuw %struct.rb_iseq_constant_body, ptr %26, i32 0, i32 6
  %28 = load ptr, ptr %27, align 8, !tbaa !102
  %29 = load i32, ptr %6, align 4, !tbaa !41
  %30 = zext i32 %29 to i64
  %31 = getelementptr i64, ptr %28, i64 %30
  %32 = load i64, ptr %31, align 8, !tbaa !7
  %33 = load i64, ptr %4, align 8, !tbaa !7
  %34 = icmp eq i64 %32, %33
  br i1 %34, label %35, label %36

35:                                               ; preds = %25
  store i32 1, ptr %3, align 4
  store i32 1, ptr %8, align 4
  br label %41

36:                                               ; preds = %25
  br label %37

37:                                               ; preds = %36
  %38 = load i32, ptr %6, align 4, !tbaa !41
  %39 = add i32 %38, 1
  store i32 %39, ptr %6, align 4, !tbaa !41
  br label %19, !llvm.loop !219

40:                                               ; preds = %19
  store i32 0, ptr %8, align 4
  br label %41

41:                                               ; preds = %40, %35
  call void @llvm.lifetime.end.p0(i64 8, ptr %7) #31
  call void @llvm.lifetime.end.p0(i64 4, ptr %6) #31
  %42 = load i32, ptr %8, align 4
  switch i32 %42, label %47 [
    i32 0, label %43
    i32 1, label %45
  ]

43:                                               ; preds = %41
  br label %44

44:                                               ; preds = %43, %2
  store i32 0, ptr %3, align 4
  br label %45

45:                                               ; preds = %44, %41
  %46 = load i32, ptr %3, align 4
  ret i32 %46

47:                                               ; preds = %41
  unreachable
}