; Function Attrs: nofree norecurse nosync nounwind sspstrong memory(read, inaccessiblemem: none) uwtable
define hidden range(i32 0, 2) i32 @rb_local_defined(i64 noundef %0, ptr noundef readonly captures(address_is_null) %1) local_unnamed_addr #10 {
  %.not = icmp eq ptr %1, null
  br i1 %.not, label %.thread, label %3

3:                                                ; preds = %2
  %4 = getelementptr inbounds nuw i8, ptr %1, i64 16
  %5 = load ptr, ptr %4, align 8, !tbaa !45
  %6 = getelementptr inbounds nuw i8, ptr %5, i64 168
  %7 = load ptr, ptr %6, align 8, !tbaa !257
  %8 = getelementptr inbounds nuw i8, ptr %7, i64 16
  %9 = load ptr, ptr %8, align 8, !tbaa !45
  %10 = getelementptr inbounds nuw i8, ptr %9, i64 232
  %11 = load i32, ptr %10, align 8, !tbaa !168
  %.not16 = icmp eq i32 %11, 0
  br i1 %.not16, label %.thread, label %.lr.ph

.lr.ph:                                           ; preds = %3
  %12 = getelementptr inbounds nuw i8, ptr %9, i64 144
  %13 = load ptr, ptr %12, align 8, !tbaa !181
  %wide.trip.count = zext i32 %11 to i64
  br label %15

14:                                               ; preds = %15
  %indvars.iv.next = add nuw nsw i64 %indvars.iv, 1
  %exitcond.not = icmp eq i64 %indvars.iv.next, %wide.trip.count
  br i1 %exitcond.not, label %.thread, label %15, !llvm.loop !300

15:                                               ; preds = %.lr.ph, %14
  %indvars.iv = phi i64 [ 0, %.lr.ph ], [ %indvars.iv.next, %14 ]
  %16 = getelementptr i64, ptr %13, i64 %indvars.iv
  %17 = load i64, ptr %16, align 8, !tbaa !37
  %18 = icmp eq i64 %17, %0
  br i1 %18, label %.thread, label %14

.thread:                                          ; preds = %15, %14, %3, %2
  %.1 = phi i32 [ 0, %2 ], [ 0, %3 ], [ 1, %15 ], [ 0, %14 ]
  ret i32 %.1
}